target datalayout = "e-m:e-p270:32:32-p271:32:32-p272:64:64-i64:64-i128:128-f80:128-n8:16:32:64-S128"
target triple = "x86_64-pc-linux-gnu"

%struct.MMSContext = type { ptr, ptr, ptr, [512 x i8], [65536 x i8], ptr, i32, ptr, i32, i32, i32, i32, i32, i32 }

; Function Attrs: nounwind uwtable
define i32 @ff_mms_read_header(ptr noundef %0, ptr noundef %1, i32 noundef %2) #0 {
  %4 = alloca ptr, align 8
  %5 = alloca ptr, align 8
  %6 = alloca i32, align 4
  %7 = alloca ptr, align 8
  %8 = alloca i32, align 4
  %9 = alloca i32, align 4
  store ptr %0, ptr %4, align 8, !tbaa !4
  store ptr %1, ptr %5, align 8, !tbaa !9
  store i32 %2, ptr %6, align 4, !tbaa !11
  call void @llvm.lifetime.start.p0(i64 8, ptr %7) #5
  call void @llvm.lifetime.start.p0(i64 4, ptr %8) #5
  call void @llvm.lifetime.start.p0(i64 4, ptr %9) #5
  %10 = load ptr, ptr %4, align 8, !tbaa !4
  %11 = getelementptr inbounds nuw %struct.MMSContext, ptr %10, i32 0, i32 8
  %12 = load i32, ptr %11, align 8, !tbaa !13
  %13 = load ptr, ptr %4, align 8, !tbaa !4
  %14 = getelementptr inbounds nuw %struct.MMSContext, ptr %13, i32 0, i32 11
  %15 = load i32, ptr %14, align 4, !tbaa !17
  %16 = sub nsw i32 %12, %15
  store i32 %16, ptr %9, align 4, !tbaa !11
  %17 = load i32, ptr %6, align 4, !tbaa !11
  %18 = load i32, ptr %9, align 4, !tbaa !11
  %19 = icmp sgt i32 %17, %18
  br i1 %19, label %20, label %22

20:                                               ; preds = %3
  %21 = load i32, ptr %9, align 4, !tbaa !11
  br label %24

22:                                               ; preds = %3
  %23 = load i32, ptr %6, align 4, !tbaa !11
  br label %24

24:                                               ; preds = %22, %20
  %25 = phi i32 [ %21, %20 ], [ %23, %22 ]
  store i32 %25, ptr %8, align 4, !tbaa !11
  %26 = load ptr, ptr %4, align 8, !tbaa !4
  %27 = getelementptr inbounds nuw %struct.MMSContext, ptr %26, i32 0, i32 7
  %28 = load ptr, ptr %27, align 8, !tbaa !18
  %29 = load ptr, ptr %4, align 8, !tbaa !4
  %30 = getelementptr inbounds nuw %struct.MMSContext, ptr %29, i32 0, i32 11
  %31 = load i32, ptr %30, align 4, !tbaa !17
  %32 = sext i32 %31 to i64
  %33 = getelementptr inbounds i8, ptr %28, i64 %32
  store ptr %33, ptr %7, align 8, !tbaa !9
  %34 = load ptr, ptr %5, align 8, !tbaa !9
  %35 = load ptr, ptr %7, align 8, !tbaa !9
  %36 = load i32, ptr %8, align 4, !tbaa !11
  %37 = sext i32 %36 to i64
  call void @llvm.memcpy.p0.p0.i64(ptr align 1 %34, ptr align 1 %35, i64 %37, i1 false)
  %38 = load ptr, ptr %4, align 8, !tbaa !4
  %39 = getelementptr inbounds nuw %struct.MMSContext, ptr %38, i32 0, i32 11
  %40 = load i32, ptr %39, align 4, !tbaa !17
  %41 = load ptr, ptr %4, align 8, !tbaa !4
  %42 = getelementptr inbounds nuw %struct.MMSContext, ptr %41, i32 0, i32 8
  %43 = load i32, ptr %42, align 8, !tbaa !13
  %44 = icmp eq i32 %40, %43
  br i1 %44, label %45, label %48

45:                                               ; preds = %24
  %46 = load ptr, ptr %4, align 8, !tbaa !4
  %47 = getelementptr inbounds nuw %struct.MMSContext, ptr %46, i32 0, i32 7
  call void @av_freep(ptr noundef %47)
  br label %48

48:                                               ; preds = %45, %24
  %49 = load i32, ptr %8, align 4, !tbaa !11
  %50 = load ptr, ptr %4, align 8, !tbaa !4
  %51 = getelementptr inbounds nuw %struct.MMSContext, ptr %50, i32 0, i32 11
  %52 = load i32, ptr %51, align 4, !tbaa !17
  %53 = add nsw i32 %52, %49
  store i32 %53, ptr %51, align 4, !tbaa !17
  %54 = load i32, ptr %8, align 4, !tbaa !11
  call void @llvm.lifetime.end.p0(i64 4, ptr %9) #5
  call void @llvm.lifetime.end.p0(i64 4, ptr %8) #5
  call void @llvm.lifetime.end.p0(i64 8, ptr %7) #5
  ret i32 %54
}