; Function Attrs: nounwind uwtable
define i32 @ff_mms_read_header(ptr noundef %0, ptr noundef writeonly captures(none) %1, i32 noundef %2) local_unnamed_addr #0 {
  %4 = getelementptr inbounds nuw i8, ptr %0, i64 66096
  %5 = load i32, ptr %4, align 8, !tbaa !4
  %6 = getelementptr inbounds nuw i8, ptr %0, i64 66108
  %7 = load i32, ptr %6, align 4, !tbaa !13
  %8 = sub nsw i32 %5, %7
  %9 = tail call i32 @llvm.smin.i32(i32 %2, i32 %8)
  %10 = getelementptr inbounds nuw i8, ptr %0, i64 66088
  %11 = load ptr, ptr %10, align 8, !tbaa !14
  %12 = sext i32 %7 to i64
  %13 = getelementptr inbounds i8, ptr %11, i64 %12
  %14 = sext i32 %9 to i64
  tail call void @llvm.memcpy.p0.p0.i64(ptr align 1 %1, ptr align 1 %13, i64 %14, i1 false)
  %15 = load i32, ptr %6, align 4, !tbaa !13
  %16 = load i32, ptr %4, align 8, !tbaa !4
  %17 = icmp eq i32 %15, %16
  br i1 %17, label %18, label %19

18:                                               ; preds = %3
  tail call void @av_freep(ptr noundef nonnull %10) #6
  %.pre = load i32, ptr %6, align 4, !tbaa !13
  br label %19

19:                                               ; preds = %18, %3
  %20 = phi i32 [ %.pre, %18 ], [ %15, %3 ]
  %21 = add nsw i32 %20, %9
  store i32 %21, ptr %6, align 4, !tbaa !13
  ret i32 %9
}